target datalayout = "e-m:e-p270:32:32-p271:32:32-p272:64:64-i64:64-i128:128-f80:128-n8:16:32:64-S128"
target triple = "x86_64-pc-linux-gnu"

%struct.png_info_def = type { i32, i32, i32, i64, ptr, i16, i16, i8, i8, i8, i8, i8, i8, i8, i8, [8 x i8], %struct.png_colorspace, ptr, ptr, i32, i32, i32, ptr, %struct.png_time_struct, %struct.png_color_8_struct, ptr, %struct.png_color_16_struct, %struct.png_color_16_struct, i32, i32, i8, i32, i32, i8, ptr, ptr, i32, i32, ptr, ptr, i8, i8, i32, ptr, i32, ptr, i32, i8, ptr, ptr, ptr }
%struct.png_colorspace = type { i32, %struct.png_xy, %struct.png_XYZ, i16, i16 }
%struct.png_xy = type { i32, i32, i32, i32, i32, i32, i32, i32 }
%struct.png_XYZ = type { i32, i32, i32, i32, i32, i32, i32, i32, i32 }
%struct.png_time_struct = type { i16, i8, i8, i8, i8, i8 }
%struct.png_color_8_struct = type { i8, i8, i8, i8, i8 }
%struct.png_color_16_struct = type { i8, i16, i16, i16, i16 }

; Function Attrs: nounwind uwtable
define hidden void @png_set_cHRM_XYZ_fixed(ptr noalias noundef %0, ptr noalias noundef %1, i32 noundef %2, i32 noundef %3, i32 noundef %4, i32 noundef %5, i32 noundef %6, i32 noundef %7, i32 noundef %8, i32 noundef %9, i32 noundef %10) #0 {
  %12 = alloca ptr, align 8
  %13 = alloca ptr, align 8
  %14 = alloca i32, align 4
  %15 = alloca i32, align 4
  %16 = alloca i32, align 4
  %17 = alloca i32, align 4
  %18 = alloca i32, align 4
  %19 = alloca i32, align 4
  %20 = alloca i32, align 4
  %21 = alloca i32, align 4
  %22 = alloca i32, align 4
  %23 = alloca %struct.png_XYZ, align 4
  store ptr %0, ptr %12, align 8
  store ptr %1, ptr %13, align 8
  store i32 %2, ptr %14, align 4
  store i32 %3, ptr %15, align 4
  store i32 %4, ptr %16, align 4
  store i32 %5, ptr %17, align 4
  store i32 %6, ptr %18, align 4
  store i32 %7, ptr %19, align 4
  store i32 %8, ptr %20, align 4
  store i32 %9, ptr %21, align 4
  store i32 %10, ptr %22, align 4
  %24 = load ptr, ptr %12, align 8
  %25 = icmp eq ptr %24, null
  br i1 %25, label %29, label %26

26:                                               ; preds = %11
  %27 = load ptr, ptr %13, align 8
  %28 = icmp eq ptr %27, null
  br i1 %28, label %29, label %30

29:                                               ; preds = %26, %11
  br label %65

30:                                               ; preds = %26
  %31 = load i32, ptr %14, align 4
  %32 = getelementptr inbounds %struct.png_XYZ, ptr %23, i32 0, i32 0
  store i32 %31, ptr %32, align 4
  %33 = load i32, ptr %15, align 4
  %34 = getelementptr inbounds %struct.png_XYZ, ptr %23, i32 0, i32 1
  store i32 %33, ptr %34, align 4
  %35 = load i32, ptr %16, align 4
  %36 = getelementptr inbounds %struct.png_XYZ, ptr %23, i32 0, i32 2
  store i32 %35, ptr %36, align 4
  %37 = load i32, ptr %17, align 4
  %38 = getelementptr inbounds %struct.png_XYZ, ptr %23, i32 0, i32 3
  store i32 %37, ptr %38, align 4
  %39 = load i32, ptr %18, align 4
  %40 = getelementptr inbounds %struct.png_XYZ, ptr %23, i32 0, i32 4
  store i32 %39, ptr %40, align 4
  %41 = load i32, ptr %19, align 4
  %42 = getelementptr inbounds %struct.png_XYZ, ptr %23, i32 0, i32 5
  store i32 %41, ptr %42, align 4
  %43 = load i32, ptr %20, align 4
  %44 = getelementptr inbounds %struct.png_XYZ, ptr %23, i32 0, i32 6
  store i32 %43, ptr %44, align 4
  %45 = load i32, ptr %21, align 4
  %46 = getelementptr inbounds %struct.png_XYZ, ptr %23, i32 0, i32 7
  store i32 %45, ptr %46, align 4
  %47 = load i32, ptr %22, align 4
  %48 = getelementptr inbounds %struct.png_XYZ, ptr %23, i32 0, i32 8
  store i32 %47, ptr %48, align 4
  %49 = load ptr, ptr %12, align 8
  %50 = load ptr, ptr %13, align 8
  %51 = getelementptr inbounds %struct.png_info_def, ptr %50, i32 0, i32 16
  %52 = call i32 @png_colorspace_set_endpoints(ptr noundef %49, ptr noundef %51, ptr noundef %23, i32 noundef 2)
  %53 = icmp ne i32 %52, 0
  br i1 %53, label %54, label %62

54:                                               ; preds = %30
  %55 = load ptr, ptr %13, align 8
  %56 = getelementptr inbounds %struct.png_info_def, ptr %55, i32 0, i32 16
  %57 = getelementptr inbounds %struct.png_colorspace, ptr %56, i32 0, i32 4
  %58 = load i16, ptr %57, align 2
  %59 = zext i16 %58 to i32
  %60 = or i32 %59, 16
  %61 = trunc i32 %60 to i16
  store i16 %61, ptr %57, align 2
  br label %62

62:                                               ; preds = %54, %30
  %63 = load ptr, ptr %12, align 8
  %64 = load ptr, ptr %13, align 8
  call void @png_colorspace_sync_info(ptr noundef %63, ptr noundef %64)
  br label %65

65:                                               ; preds = %62, %29
  ret void
}