; Function Attrs: nounwind uwtable
define hidden void @png_set_cHRM_XYZ_fixed(ptr noalias noundef %0, ptr noalias noundef %1, i32 noundef %2, i32 noundef %3, i32 noundef %4, i32 noundef %5, i32 noundef %6, i32 noundef %7, i32 noundef %8, i32 noundef %9, i32 noundef %10) local_unnamed_addr #2 {
  %12 = alloca %struct.png_XYZ, align 4
  %13 = icmp eq ptr %0, null
  %14 = icmp eq ptr %1, null
  %or.cond = or i1 %13, %14
  br i1 %or.cond, label %31, label %15

15:                                               ; preds = %11
  store i32 %2, ptr %12, align 4
  %16 = getelementptr inbounds i8, ptr %12, i64 4
  store i32 %3, ptr %16, align 4
  %17 = getelementptr inbounds i8, ptr %12, i64 8
  store i32 %4, ptr %17, align 4
  %18 = getelementptr inbounds i8, ptr %12, i64 12
  store i32 %5, ptr %18, align 4
  %19 = getelementptr inbounds i8, ptr %12, i64 16
  store i32 %6, ptr %19, align 4
  %20 = getelementptr inbounds i8, ptr %12, i64 20
  store i32 %7, ptr %20, align 4
  %21 = getelementptr inbounds i8, ptr %12, i64 24
  store i32 %8, ptr %21, align 4
  %22 = getelementptr inbounds i8, ptr %12, i64 28
  store i32 %9, ptr %22, align 4
  %23 = getelementptr inbounds i8, ptr %12, i64 32
  store i32 %10, ptr %23, align 4
  %24 = getelementptr inbounds i8, ptr %1, i64 52
  %25 = call i32 @png_colorspace_set_endpoints(ptr noundef nonnull %0, ptr noundef nonnull %24, ptr noundef nonnull %12, i32 noundef 2) #12
  %.not = icmp eq i32 %25, 0
  br i1 %.not, label %30, label %26

26:                                               ; preds = %15
  %27 = getelementptr inbounds i8, ptr %1, i64 126
  %28 = load i16, ptr %27, align 2
  %29 = or i16 %28, 16
  store i16 %29, ptr %27, align 2
  br label %30

30:                                               ; preds = %26, %15
  call void @png_colorspace_sync_info(ptr noundef nonnull %0, ptr noundef nonnull %1) #12
  br label %31

31:                                               ; preds = %11, %30
  ret void
}